target datalayout = "e-m:e-p270:32:32-p271:32:32-p272:64:64-i64:64-i128:128-f80:128-n8:16:32:64-S128"
target triple = "x86_64-pc-linux-gnu"

%struct.Hop_Obj_t_ = type { %union.anon, %union.anon.0, ptr, ptr, i32, i32 }
%union.anon = type { ptr }
%union.anon.0 = type { ptr }

; Function Attrs: nounwind uwtable
define internal i32 @Hop_IsComplement(ptr noundef %0) #0 {
  %2 = alloca ptr, align 8
  store ptr %0, ptr %2, align 8
  %3 = load ptr, ptr %2, align 8
  %4 = ptrtoint ptr %3 to i64
  %5 = and i64 %4, 1
  %6 = trunc i64 %5 to i32
  ret i32 %6
}

; Function Attrs: nounwind uwtable
define internal i32 @Hop_ObjFaninC1(ptr noundef %0) #0 {
  %2 = alloca ptr, align 8
  store ptr %0, ptr %2, align 8
  %3 = load ptr, ptr %2, align 8
  %4 = getelementptr inbounds %struct.Hop_Obj_t_, ptr %3, i32 0, i32 3
  %5 = load ptr, ptr %4, align 8
  %6 = call i32 @Hop_IsComplement(ptr noundef %5)
  ret i32 %6
}

; Function Attrs: nounwind uwtable
define internal i32 @Abc_LitNotCond(i32 noundef %0, i32 noundef %1) #0 {
  %3 = alloca i32, align 4
  %4 = alloca i32, align 4
  store i32 %0, ptr %3, align 4
  store i32 %1, ptr %4, align 4
  %5 = load i32, ptr %3, align 4
  %6 = load i32, ptr %4, align 4
  %7 = icmp sgt i32 %6, 0
  %8 = zext i1 %7 to i32
  %9 = xor i32 %5, %8
  ret i32 %9
}

; Function Attrs: nounwind uwtable
define internal i32 @Hop_ObjFaninC0(ptr noundef %0) #0 {
  %2 = alloca ptr, align 8
  store ptr %0, ptr %2, align 8
  %3 = load ptr, ptr %2, align 8
  %4 = getelementptr inbounds %struct.Hop_Obj_t_, ptr %3, i32 0, i32 2
  %5 = load ptr, ptr %4, align 8
  %6 = call i32 @Hop_IsComplement(ptr noundef %5)
  ret i32 %6
}

; Function Attrs: nounwind uwtable
define internal ptr @Hop_Regular(ptr noundef %0) #0 {
  %2 = alloca ptr, align 8
  store ptr %0, ptr %2, align 8
  %3 = load ptr, ptr %2, align 8
  %4 = ptrtoint ptr %3 to i64
  %5 = and i64 %4, -2
  %6 = inttoptr i64 %5 to ptr
  ret ptr %6
}

; Function Attrs: nounwind uwtable
define internal void @Hop_ObjSetMarkA(ptr noundef %0) #0 {
  %2 = alloca ptr, align 8
  store ptr %0, ptr %2, align 8
  %3 = load ptr, ptr %2, align 8
  %4 = getelementptr inbounds %struct.Hop_Obj_t_, ptr %3, i32 0, i32 4
  %5 = load i32, ptr %4, align 8
  %6 = and i32 %5, -17
  %7 = or i32 %6, 16
  store i32 %7, ptr %4, align 8
  ret void
}

; Function Attrs: nounwind uwtable
define internal i32 @Hop_ObjChild1CopyI(ptr noundef %0) #0 {
  %2 = alloca ptr, align 8
  store ptr %0, ptr %2, align 8
  %3 = load ptr, ptr %2, align 8
  %4 = call ptr @Hop_ObjFanin1(ptr noundef %3)
  %5 = icmp ne ptr %4, null
  br i1 %5, label %6, label %14

6:                                                ; preds = %1
  %7 = load ptr, ptr %2, align 8
  %8 = call ptr @Hop_ObjFanin1(ptr noundef %7)
  %9 = getelementptr inbounds %struct.Hop_Obj_t_, ptr %8, i32 0, i32 0
  %10 = load i32, ptr %9, align 8
  %11 = load ptr, ptr %2, align 8
  %12 = call i32 @Hop_ObjFaninC1(ptr noundef %11)
  %13 = call i32 @Abc_LitNotCond(i32 noundef %10, i32 noundef %12)
  br label %15

14:                                               ; preds = %1
  br label %15

15:                                               ; preds = %14, %6
  %16 = phi i32 [ %13, %6 ], [ -1, %14 ]
  ret i32 %16
}

; Function Attrs: nounwind uwtable
define internal i32 @Hop_ObjChild0CopyI(ptr noundef %0) #0 {
  %2 = alloca ptr, align 8
  store ptr %0, ptr %2, align 8
  %3 = load ptr, ptr %2, align 8
  %4 = call ptr @Hop_ObjFanin0(ptr noundef %3)
  %5 = icmp ne ptr %4, null
  br i1 %5, label %6, label %14

6:                                                ; preds = %1
  %7 = load ptr, ptr %2, align 8
  %8 = call ptr @Hop_ObjFanin0(ptr noundef %7)
  %9 = getelementptr inbounds %struct.Hop_Obj_t_, ptr %8, i32 0, i32 0
  %10 = load i32, ptr %9, align 8
  %11 = load ptr, ptr %2, align 8
  %12 = call i32 @Hop_ObjFaninC0(ptr noundef %11)
  %13 = call i32 @Abc_LitNotCond(i32 noundef %10, i32 noundef %12)
  br label %15

14:                                               ; preds = %1
  br label %15

15:                                               ; preds = %14, %6
  %16 = phi i32 [ %13, %6 ], [ -1, %14 ]
  ret i32 %16
}

; Function Attrs: nounwind uwtable
define internal ptr @Hop_ObjFanin1(ptr noundef %0) #0 {
  %2 = alloca ptr, align 8
  store ptr %0, ptr %2, align 8
  %3 = load ptr, ptr %2, align 8
  %4 = getelementptr inbounds %struct.Hop_Obj_t_, ptr %3, i32 0, i32 3
  %5 = load ptr, ptr %4, align 8
  %6 = call ptr @Hop_Regular(ptr noundef %5)
  ret ptr %6
}

; Function Attrs: nounwind uwtable
define internal ptr @Hop_ObjFanin0(ptr noundef %0) #0 {
  %2 = alloca ptr, align 8
  store ptr %0, ptr %2, align 8
  %3 = load ptr, ptr %2, align 8
  %4 = getelementptr inbounds %struct.Hop_Obj_t_, ptr %3, i32 0, i32 2
  %5 = load ptr, ptr %4, align 8
  %6 = call ptr @Hop_Regular(ptr noundef %5)
  ret ptr %6
}

; Function Attrs: nounwind uwtable
define internal i32 @Hop_ObjIsMarkA(ptr noundef %0) #0 {
  %2 = alloca ptr, align 8
  store ptr %0, ptr %2, align 8
  %3 = load ptr, ptr %2, align 8
  %4 = getelementptr inbounds %struct.Hop_Obj_t_, ptr %3, i32 0, i32 4
  %5 = load i32, ptr %4, align 8
  %6 = lshr i32 %5, 4
  %7 = and i32 %6, 1
  ret i32 %7
}

; Function Attrs: nounwind uwtable
define internal i32 @Hop_ObjIsNode(ptr noundef %0) #0 {
  %2 = alloca ptr, align 8
  store ptr %0, ptr %2, align 8
  %3 = load ptr, ptr %2, align 8
  %4 = getelementptr inbounds %struct.Hop_Obj_t_, ptr %3, i32 0, i32 4
  %5 = load i32, ptr %4, align 8
  %6 = and i32 %5, 7
  %7 = icmp eq i32 %6, 4
  br i1 %7, label %14, label %8

8:                                                ; preds = %1
  %9 = load ptr, ptr %2, align 8
  %10 = getelementptr inbounds %struct.Hop_Obj_t_, ptr %9, i32 0, i32 4
  %11 = load i32, ptr %10, align 8
  %12 = and i32 %11, 7
  %13 = icmp eq i32 %12, 5
  br label %14

14:                                               ; preds = %8, %1
  %15 = phi i1 [ true, %1 ], [ %13, %8 ]
  %16 = zext i1 %15 to i32
  ret i32 %16
}

; Function Attrs: nounwind uwtable
define void @Abc_NtkTestTimNodeStrash_rec(ptr noundef %0, ptr noundef %1) #0 {
  %3 = alloca ptr, align 8
  %4 = alloca ptr, align 8
  store ptr %0, ptr %3, align 8
  store ptr %1, ptr %4, align 8
  %5 = load ptr, ptr %4, align 8
  %6 = call i32 @Hop_ObjIsNode(ptr noundef %5)
  %7 = icmp ne i32 %6, 0
  br i1 %7, label %8, label %12

8:                                                ; preds = %2
  %9 = load ptr, ptr %4, align 8
  %10 = call i32 @Hop_ObjIsMarkA(ptr noundef %9)
  %11 = icmp ne i32 %10, 0
  br i1 %11, label %12, label %13

12:                                               ; preds = %8, %2
  br label %29

13:                                               ; preds = %8
  %14 = load ptr, ptr %3, align 8
  %15 = load ptr, ptr %4, align 8
  %16 = call ptr @Hop_ObjFanin0(ptr noundef %15)
  call void @Abc_NtkTestTimNodeStrash_rec(ptr noundef %14, ptr noundef %16)
  %17 = load ptr, ptr %3, align 8
  %18 = load ptr, ptr %4, align 8
  %19 = call ptr @Hop_ObjFanin1(ptr noundef %18)
  call void @Abc_NtkTestTimNodeStrash_rec(ptr noundef %17, ptr noundef %19)
  %20 = load ptr, ptr %3, align 8
  %21 = load ptr, ptr %4, align 8
  %22 = call i32 @Hop_ObjChild0CopyI(ptr noundef %21)
  %23 = load ptr, ptr %4, align 8
  %24 = call i32 @Hop_ObjChild1CopyI(ptr noundef %23)
  %25 = call i32 @Gia_ManHashAnd(ptr noundef %20, i32 noundef %22, i32 noundef %24)
  %26 = load ptr, ptr %4, align 8
  %27 = getelementptr inbounds %struct.Hop_Obj_t_, ptr %26, i32 0, i32 0
  store i32 %25, ptr %27, align 8
  %28 = load ptr, ptr %4, align 8
  call void @Hop_ObjSetMarkA(ptr noundef %28)
  br label %29

29:                                               ; preds = %13, %12
  ret void
}